target datalayout = "e-m:e-p270:32:32-p271:32:32-p272:64:64-i64:64-i128:128-f80:128-n8:16:32:64-S128"
target triple = "x86_64-pc-linux-gnu"

%struct._fcgi_request = type { i32, i32, i32, i32, i32, i32, i32, i32, i32, ptr, ptr, [8192 x i8], [16 x i8], %struct._fcgi_req_hook, i32, %struct._fcgi_hash }
%struct._fcgi_req_hook = type { ptr, ptr, ptr }
%struct._fcgi_hash = type { [128 x ptr], ptr, ptr, ptr }
%struct._fcgi_hash_buckets = type { i32, ptr, [128 x %struct._fcgi_hash_bucket] }
%struct._fcgi_hash_bucket = type { i32, i32, ptr, i32, ptr, ptr, ptr }
%struct._fcgi_data_seg = type { ptr, ptr, ptr, [1 x i8] }

; Function Attrs: nounwind uwtable
define internal void @fcgi_hash_destroy(ptr noundef %0) #0 {
  %2 = alloca ptr, align 8
  %3 = alloca ptr, align 8
  %4 = alloca ptr, align 8
  %5 = alloca ptr, align 8
  %6 = alloca ptr, align 8
  store ptr %0, ptr %2, align 8
  %7 = load ptr, ptr %2, align 8
  %8 = getelementptr inbounds %struct._fcgi_hash, ptr %7, i32 0, i32 2
  %9 = load ptr, ptr %8, align 8
  store ptr %9, ptr %3, align 8
  br label %10

10:                                               ; preds = %13, %1
  %11 = load ptr, ptr %3, align 8
  %12 = icmp ne ptr %11, null
  br i1 %12, label %13, label %19

13:                                               ; preds = %10
  %14 = load ptr, ptr %3, align 8
  store ptr %14, ptr %5, align 8
  %15 = load ptr, ptr %3, align 8
  %16 = getelementptr inbounds %struct._fcgi_hash_buckets, ptr %15, i32 0, i32 1
  %17 = load ptr, ptr %16, align 8
  store ptr %17, ptr %3, align 8
  %18 = load ptr, ptr %5, align 8
  call void @free(ptr noundef %18) #13
  br label %10

19:                                               ; preds = %10
  %20 = load ptr, ptr %2, align 8
  %21 = getelementptr inbounds %struct._fcgi_hash, ptr %20, i32 0, i32 3
  %22 = load ptr, ptr %21, align 8
  store ptr %22, ptr %4, align 8
  br label %23

23:                                               ; preds = %26, %19
  %24 = load ptr, ptr %4, align 8
  %25 = icmp ne ptr %24, null
  br i1 %25, label %26, label %32

26:                                               ; preds = %23
  %27 = load ptr, ptr %4, align 8
  store ptr %27, ptr %6, align 8
  %28 = load ptr, ptr %4, align 8
  %29 = getelementptr inbounds %struct._fcgi_data_seg, ptr %28, i32 0, i32 2
  %30 = load ptr, ptr %29, align 8
  store ptr %30, ptr %4, align 8
  %31 = load ptr, ptr %6, align 8
  call void @free(ptr noundef %31) #13
  br label %23

32:                                               ; preds = %23
  ret void
}

; Function Attrs: nounwind uwtable
define hidden void @fcgi_destroy_request(ptr noundef %0) #0 {
  %2 = alloca ptr, align 8
  store ptr %0, ptr %2, align 8
  %3 = load ptr, ptr %2, align 8
  %4 = getelementptr inbounds %struct._fcgi_request, ptr %3, i32 0, i32 15
  call void @fcgi_hash_destroy(ptr noundef %4)
  %5 = load ptr, ptr %2, align 8
  call void @free(ptr noundef %5) #13
  ret void
}