; Function Attrs: nounwind uwtable
define hidden void @fcgi_destroy_request(ptr nocapture noundef %0) local_unnamed_addr #3 {
  %2 = getelementptr inbounds i8, ptr %0, i64 9328
  %3 = load ptr, ptr %2, align 8
  %.not12.i = icmp eq ptr %3, null
  br i1 %.not12.i, label %._crit_edge.i, label %.lr.ph.i

.lr.ph.i:                                         ; preds = %1, %.lr.ph.i
  %.013.i = phi ptr [ %5, %.lr.ph.i ], [ %3, %1 ]
  %4 = getelementptr inbounds i8, ptr %.013.i, i64 8
  %5 = load ptr, ptr %4, align 8
  tail call void @free(ptr noundef nonnull %.013.i) #32
  %.not.i = icmp eq ptr %5, null
  br i1 %.not.i, label %._crit_edge.i, label %.lr.ph.i

._crit_edge.i:                                    ; preds = %.lr.ph.i, %1
  %6 = getelementptr inbounds i8, ptr %0, i64 9336
  %7 = load ptr, ptr %6, align 8
  %.not1114.i = icmp eq ptr %7, null
  br i1 %.not1114.i, label %fcgi_hash_destroy.exit, label %.lr.ph17.i

.lr.ph17.i:                                       ; preds = %._crit_edge.i, %.lr.ph17.i
  %.01015.i = phi ptr [ %9, %.lr.ph17.i ], [ %7, %._crit_edge.i ]
  %8 = getelementptr inbounds i8, ptr %.01015.i, i64 16
  %9 = load ptr, ptr %8, align 8
  tail call void @free(ptr noundef nonnull %.01015.i) #32
  %.not11.i = icmp eq ptr %9, null
  br i1 %.not11.i, label %fcgi_hash_destroy.exit, label %.lr.ph17.i

fcgi_hash_destroy.exit:                           ; preds = %.lr.ph17.i, %._crit_edge.i
  tail call void @free(ptr noundef %0) #32
  ret void
}